target datalayout = "e-m:e-p270:32:32-p271:32:32-p272:64:64-i64:64-i128:128-f80:128-n8:16:32:64-S128"
target triple = "x86_64-unknown-linux-gnu"

%union.pthread_mutex_t = type { %struct.__pthread_mutex_s }
%struct.__pthread_mutex_s = type { i32, i32, i32, i32, i32, i16, i16, %struct.__pthread_internal_list }
%struct.__pthread_internal_list = type { ptr, ptr }
%struct.QTailQLink = type { ptr, ptr }
%struct.QemuMutex = type { %union.pthread_mutex_t, i8 }
%struct.CPUState = type { %struct.DeviceState, ptr, i32, i32, ptr, i32, i8, i8, ptr, i8, i8, i8, i8, i8, i8, i8, i8, i32, i32, i32, i32, i64, i64, i64, [1 x %struct.__jmp_buf_tag], %struct.QemuMutex, %struct.anon.5, ptr, i32, ptr, ptr, ptr, ptr, i32, i32, %union.anon.6, %union.anon.7, %union.anon.8, ptr, ptr, i64, i32, ptr, ptr, ptr, i32, i64, i32, %struct.QemuLockCnt, [1 x i64], ptr, i32, i32, i32, i32, i32, ptr, i8, i8, i64, i8, i8, ptr, [8 x i8], [0 x i8], %struct.CPUNegativeOffsetState }
%struct.DeviceState = type { %struct.Object, ptr, ptr, i8, i8, i64, ptr, i32, i8, ptr, %struct.NamedGPIOListHead, %struct.NamedClockListHead, %struct.BusStateHead, i32, i32, i32, %struct.ResettableState, ptr, %struct.MemReentrancyGuard }
%struct.Object = type { ptr, ptr, ptr, i32, ptr }
%struct.NamedGPIOListHead = type { ptr }
%struct.NamedClockListHead = type { ptr }
%struct.BusStateHead = type { ptr }
%struct.ResettableState = type { i32, i8, i8 }
%struct.MemReentrancyGuard = type { i8 }
%struct.__jmp_buf_tag = type { [8 x i64], i32, %struct.__sigset_t }
%struct.__sigset_t = type { [16 x i64] }
%struct.anon.5 = type { ptr, ptr }
%union.anon.6 = type { %struct.QTailQLink }
%union.anon.7 = type { %struct.QTailQLink }
%union.anon.8 = type { %struct.QTailQLink }
%struct.QemuLockCnt = type { i32 }
%struct.CPUNegativeOffsetState = type { %struct.CPUTLB, %union.IcountDecr, i8, [11 x i8] }
%struct.CPUTLB = type { %struct.CPUTLBCommon, [16 x %struct.CPUTLBDesc], [16 x %struct.CPUTLBDescFast] }
%struct.CPUTLBCommon = type { %struct.QemuSpin, i16, i64, i64, i64 }
%struct.QemuSpin = type { i32 }
%struct.CPUTLBDesc = type { i64, i64, i64, i64, i64, i64, [8 x %union.CPUTLBEntry], [8 x %struct.CPUTLBEntryFull], ptr }
%union.CPUTLBEntry = type { %struct.anon.9 }
%struct.anon.9 = type { i64, i64, i64, i64 }
%struct.CPUTLBEntryFull = type { i64, i64, %struct.MemTxAttrs, i8, i8, [3 x i8], %union.anon.10 }
%struct.MemTxAttrs = type { i32 }
%union.anon.10 = type { %struct.anon.11 }
%struct.anon.11 = type { i8, i8, i8 }
%struct.CPUTLBDescFast = type { i64, ptr }
%union.IcountDecr = type { i32 }
%struct.TaskState = type { i32, i32, i64, i64, i64, i64, i32, ptr, ptr, %struct.emulated_sigtable, [64 x %struct.emulated_sigtable], %struct.__sigset_t, %struct.__sigset_t, i32, i32, %struct.target_sigaltstack, i64 }
%struct.emulated_sigtable = type { i32, %struct.target_siginfo }
%struct.target_siginfo = type { i32, i32, i32, %union.anon }
%union.anon = type { %struct.anon.2, [80 x i8] }
%struct.anon.2 = type { i32, i32, i32, i64, i64 }
%struct.target_sigaltstack = type { i64, i32, i64 }
%struct.linux_binprm = type { [1024 x i8], %struct.ImageSource, i64, i32, i32, i32, i32, ptr, ptr, ptr, ptr, [8 x i8] }
%struct.ImageSource = type { ptr, i32, i32 }
%struct.image_info = type { i64, i64, i64, i64, i64, i64, i64, i64, i64, i64, i64, i64, i64, i64, i64, i64, i64, i64, i64, i64, i32, i32, i64, i8, i64, i64, i64, i16, ptr, i64, i64, i64, ptr, i32 }
%struct._GString = type { ptr, i64, i64 }

@.str.614 = private unnamed_addr constant [4 x i8] c"%d \00", align 1
@.str.615 = private unnamed_addr constant [2 x i8] c"/\00", align 1
@.str.616 = private unnamed_addr constant [9 x i8] c"(%.15s) \00", align 1
@.str.617 = private unnamed_addr constant [3 x i8] c"R \00", align 1
@.str.618 = private unnamed_addr constant [5 x i8] c"%lu \00", align 1
@.str.619 = private unnamed_addr constant [5 x i8] c"%ld \00", align 1
@.str.620 = private unnamed_addr constant [4 x i8] c"0%c\00", align 1

; Function Attrs: nounwind sspstrong uwtable
define internal void @g_autoptr_cleanup_gstring_free(ptr noundef %string) #0 {
entry:
  %string.addr = alloca ptr, align 8
  store ptr %string, ptr %string.addr, align 8
  %0 = load ptr, ptr %string.addr, align 8
  %tobool = icmp ne ptr %0, null
  br i1 %tobool, label %if.then, label %if.end

if.then:                                          ; preds = %entry
  %1 = load ptr, ptr %string.addr, align 8
  %call = call ptr @g_string_free(ptr noundef %1, i32 noundef 1)
  br label %if.end

if.end:                                           ; preds = %if.then, %entry
  ret void
}

; Function Attrs: nounwind sspstrong uwtable
define internal void @glib_autoptr_clear_GString(ptr noundef %_ptr) #0 {
entry:
  %_ptr.addr = alloca ptr, align 8
  store ptr %_ptr, ptr %_ptr.addr, align 8
  %0 = load ptr, ptr %_ptr.addr, align 8
  %tobool = icmp ne ptr %0, null
  br i1 %tobool, label %if.then, label %if.end

if.then:                                          ; preds = %entry
  %1 = load ptr, ptr %_ptr.addr, align 8
  call void @g_autoptr_cleanup_gstring_free(ptr noundef %1)
  br label %if.end

if.end:                                           ; preds = %if.then, %entry
  ret void
}

; Function Attrs: nounwind sspstrong uwtable
define internal void @glib_autoptr_cleanup_GString(ptr noundef %_ptr) #0 {
entry:
  %_ptr.addr = alloca ptr, align 8
  store ptr %_ptr, ptr %_ptr.addr, align 8
  %0 = load ptr, ptr %_ptr.addr, align 8
  %1 = load ptr, ptr %0, align 8
  call void @glib_autoptr_clear_GString(ptr noundef %1)
  ret void
}

; Function Attrs: nounwind sspstrong uwtable
define internal ptr @env_cpu(ptr noundef %env) #0 {
entry:
  %env.addr = alloca ptr, align 8
  store ptr %env, ptr %env.addr, align 8
  %0 = load ptr, ptr %env.addr, align 8
  %add.ptr = getelementptr i8, ptr %0, i64 -10176
  ret ptr %add.ptr
}

; Function Attrs: nounwind sspstrong uwtable
define internal i32 @open_self_stat(ptr noundef %cpu_env, i32 noundef %fd) #0 {
entry:
  %retval = alloca i32, align 4
  %cpu_env.addr = alloca ptr, align 8
  %fd.addr = alloca i32, align 4
  %cpu = alloca ptr, align 8
  %ts = alloca ptr, align 8
  %buf = alloca ptr, align 8
  %i = alloca i32, align 4
  %bin = alloca ptr, align 8
  %cleanup.dest.slot = alloca i32, align 4
  store ptr %cpu_env, ptr %cpu_env.addr, align 8
  store i32 %fd, ptr %fd.addr, align 4
  %0 = load ptr, ptr %cpu_env.addr, align 8
  %call = call ptr @env_cpu(ptr noundef %0)
  store ptr %call, ptr %cpu, align 8
  %1 = load ptr, ptr %cpu, align 8
  %opaque = getelementptr inbounds %struct.CPUState, ptr %1, i32 0, i32 39
  %2 = load ptr, ptr %opaque, align 16
  store ptr %2, ptr %ts, align 8
  %call1 = call ptr @g_string_new(ptr noundef null)
  store ptr %call1, ptr %buf, align 8
  store i32 0, ptr %i, align 4
  br label %for.cond

for.cond:                                         ; preds = %for.inc, %entry
  %3 = load i32, ptr %i, align 4
  %cmp = icmp slt i32 %3, 44
  br i1 %cmp, label %for.body, label %for.end

for.body:                                         ; preds = %for.cond
  %4 = load i32, ptr %i, align 4
  %cmp2 = icmp eq i32 %4, 0
  br i1 %cmp2, label %if.then, label %if.else

if.then:                                          ; preds = %for.body
  %5 = load ptr, ptr %buf, align 8
  %call3 = call i32 @getpid() #14
  call void (ptr, ptr, ...) @g_string_printf(ptr noundef %5, ptr noundef @.str.614, i32 noundef %call3)
  br label %if.end31

if.else:                                          ; preds = %for.body
  %6 = load i32, ptr %i, align 4
  %cmp4 = icmp eq i32 %6, 1
  br i1 %cmp4, label %if.then5, label %if.else10

if.then5:                                         ; preds = %if.else
  %7 = load ptr, ptr %ts, align 8
  %bprm = getelementptr inbounds %struct.TaskState, ptr %7, i32 0, i32 8
  %8 = load ptr, ptr %bprm, align 8
  %argv = getelementptr inbounds %struct.linux_binprm, ptr %8, i32 0, i32 7
  %9 = load ptr, ptr %argv, align 8
  %arrayidx = getelementptr ptr, ptr %9, i64 0
  %10 = load ptr, ptr %arrayidx, align 8
  %call6 = call ptr @g_strrstr(ptr noundef %10, ptr noundef @.str.615)
  store ptr %call6, ptr %bin, align 8
  %11 = load ptr, ptr %bin, align 8
  %tobool = icmp ne ptr %11, null
  br i1 %tobool, label %cond.true, label %cond.false

cond.true:                                        ; preds = %if.then5
  %12 = load ptr, ptr %bin, align 8
  %add.ptr = getelementptr i8, ptr %12, i64 1
  br label %cond.end

cond.false:                                       ; preds = %if.then5
  %13 = load ptr, ptr %ts, align 8
  %bprm7 = getelementptr inbounds %struct.TaskState, ptr %13, i32 0, i32 8
  %14 = load ptr, ptr %bprm7, align 8
  %argv8 = getelementptr inbounds %struct.linux_binprm, ptr %14, i32 0, i32 7
  %15 = load ptr, ptr %argv8, align 8
  %arrayidx9 = getelementptr ptr, ptr %15, i64 0
  %16 = load ptr, ptr %arrayidx9, align 8
  br label %cond.end

cond.end:                                         ; preds = %cond.false, %cond.true
  %cond = phi ptr [ %add.ptr, %cond.true ], [ %16, %cond.false ]
  store ptr %cond, ptr %bin, align 8
  %17 = load ptr, ptr %buf, align 8
  %18 = load ptr, ptr %bin, align 8
  call void (ptr, ptr, ...) @g_string_printf(ptr noundef %17, ptr noundef @.str.616, ptr noundef %18)
  br label %if.end30

if.else10:                                        ; preds = %if.else
  %19 = load i32, ptr %i, align 4
  %cmp11 = icmp eq i32 %19, 2
  br i1 %cmp11, label %if.then12, label %if.else14

if.then12:                                        ; preds = %if.else10
  %20 = load ptr, ptr %buf, align 8
  %call13 = call ptr @g_string_assign(ptr noundef %20, ptr noundef @.str.617)
  br label %if.end29

if.else14:                                        ; preds = %if.else10
  %21 = load i32, ptr %i, align 4
  %cmp15 = icmp eq i32 %21, 3
  br i1 %cmp15, label %if.then16, label %if.else18

if.then16:                                        ; preds = %if.else14
  %22 = load ptr, ptr %buf, align 8
  %call17 = call i32 @getppid() #14
  call void (ptr, ptr, ...) @g_string_printf(ptr noundef %22, ptr noundef @.str.614, i32 noundef %call17)
  br label %if.end28

if.else18:                                        ; preds = %if.else14
  %23 = load i32, ptr %i, align 4
  %cmp19 = icmp eq i32 %23, 21
  br i1 %cmp19, label %if.then20, label %if.else21

if.then20:                                        ; preds = %if.else18
  %24 = load ptr, ptr %buf, align 8
  %25 = load ptr, ptr %ts, align 8
  %start_boottime = getelementptr inbounds %struct.TaskState, ptr %25, i32 0, i32 16
  %26 = load i64, ptr %start_boottime, align 8
  call void (ptr, ptr, ...) @g_string_printf(ptr noundef %24, ptr noundef @.str.618, i64 noundef %26)
  br label %if.end27

if.else21:                                        ; preds = %if.else18
  %27 = load i32, ptr %i, align 4
  %cmp22 = icmp eq i32 %27, 27
  br i1 %cmp22, label %if.then23, label %if.else24

if.then23:                                        ; preds = %if.else21
  %28 = load ptr, ptr %buf, align 8
  %29 = load ptr, ptr %ts, align 8
  %info = getelementptr inbounds %struct.TaskState, ptr %29, i32 0, i32 7
  %30 = load ptr, ptr %info, align 8
  %start_stack = getelementptr inbounds %struct.image_info, ptr %30, i32 0, i32 7
  %31 = load i64, ptr %start_stack, align 8
  call void (ptr, ptr, ...) @g_string_printf(ptr noundef %28, ptr noundef @.str.619, i64 noundef %31)
  br label %if.end

if.else24:                                        ; preds = %if.else21
  %32 = load ptr, ptr %buf, align 8
  %33 = load i32, ptr %i, align 4
  %cmp25 = icmp eq i32 %33, 43
  %cond26 = select i1 %cmp25, i32 10, i32 32
  call void (ptr, ptr, ...) @g_string_printf(ptr noundef %32, ptr noundef @.str.620, i32 noundef %cond26)
  br label %if.end

if.end:                                           ; preds = %if.else24, %if.then23
  br label %if.end27

if.end27:                                         ; preds = %if.end, %if.then20
  br label %if.end28

if.end28:                                         ; preds = %if.end27, %if.then16
  br label %if.end29

if.end29:                                         ; preds = %if.end28, %if.then12
  br label %if.end30

if.end30:                                         ; preds = %if.end29, %cond.end
  br label %if.end31

if.end31:                                         ; preds = %if.end30, %if.then
  %34 = load i32, ptr %fd.addr, align 4
  %35 = load ptr, ptr %buf, align 8
  %str = getelementptr inbounds %struct._GString, ptr %35, i32 0, i32 0
  %36 = load ptr, ptr %str, align 8
  %37 = load ptr, ptr %buf, align 8
  %len = getelementptr inbounds %struct._GString, ptr %37, i32 0, i32 1
  %38 = load i64, ptr %len, align 8
  %call32 = call i64 @write(i32 noundef %34, ptr noundef %36, i64 noundef %38)
  %39 = load ptr, ptr %buf, align 8
  %len33 = getelementptr inbounds %struct._GString, ptr %39, i32 0, i32 1
  %40 = load i64, ptr %len33, align 8
  %cmp34 = icmp ne i64 %call32, %40
  br i1 %cmp34, label %if.then35, label %if.end36

if.then35:                                        ; preds = %if.end31
  store i32 -1, ptr %retval, align 4
  store i32 1, ptr %cleanup.dest.slot, align 4
  br label %cleanup

if.end36:                                         ; preds = %if.end31
  br label %for.inc

for.inc:                                          ; preds = %if.end36
  %41 = load i32, ptr %i, align 4
  %inc = add i32 %41, 1
  store i32 %inc, ptr %i, align 4
  br label %for.cond, !llvm.loop !14

for.end:                                          ; preds = %for.cond
  store i32 0, ptr %retval, align 4
  store i32 1, ptr %cleanup.dest.slot, align 4
  br label %cleanup

cleanup:                                          ; preds = %for.end, %if.then35
  call void @glib_autoptr_cleanup_GString(ptr noundef %buf)
  %42 = load i32, ptr %retval, align 4
  ret i32 %42
}