; Function Attrs: nounwind sspstrong uwtable
define internal range(i32 -1, 1) i32 @open_self_stat(ptr noundef readonly captures(none) %cpu_env, i32 noundef %fd) #2 {
entry:
  %opaque = getelementptr i8, ptr %cpu_env, i64 -9552
  %0 = load ptr, ptr %opaque, align 16
  %call1 = tail call ptr @g_string_new(ptr noundef null) #27
  %info = getelementptr inbounds nuw i8, ptr %0, i64 48
  %start_boottime = getelementptr inbounds nuw i8, ptr %0, i64 9192
  %bprm = getelementptr inbounds nuw i8, ptr %0, i64 56
  %len = getelementptr inbounds nuw i8, ptr %call1, i64 8
  br label %for.body

for.cond:                                         ; preds = %if.end31
  %inc = add nuw nsw i32 %i.026, 1
  %exitcond.not = icmp eq i32 %inc, 44
  br i1 %exitcond.not, label %glib_autoptr_cleanup_GString.exit, label %for.body, !llvm.loop !14

for.body:                                         ; preds = %entry, %for.cond
  %i.026 = phi i32 [ 0, %entry ], [ %inc, %for.cond ]
  switch i32 %i.026, label %if.else24 [
    i32 0, label %if.then
    i32 1, label %if.then5
    i32 2, label %if.then12
    i32 3, label %if.then16
    i32 21, label %if.then20
    i32 27, label %if.then23
  ]

if.then:                                          ; preds = %for.body
  %call3 = tail call i32 @getpid() #27
  tail call void (ptr, ptr, ...) @g_string_printf(ptr noundef %call1, ptr noundef nonnull @.str.614, i32 noundef %call3) #27
  br label %if.end31

if.then5:                                         ; preds = %for.body
  %1 = load ptr, ptr %bprm, align 8
  %argv = getelementptr inbounds nuw i8, ptr %1, i64 1064
  %2 = load ptr, ptr %argv, align 8
  %3 = load ptr, ptr %2, align 8
  %call6 = tail call ptr @g_strrstr(ptr noundef %3, ptr noundef nonnull @.str.615) #27
  %tobool.not = icmp eq ptr %call6, null
  br i1 %tobool.not, label %cond.false, label %cond.true

cond.true:                                        ; preds = %if.then5
  %add.ptr = getelementptr i8, ptr %call6, i64 1
  br label %cond.end

cond.false:                                       ; preds = %if.then5
  %4 = load ptr, ptr %bprm, align 8
  %argv8 = getelementptr inbounds nuw i8, ptr %4, i64 1064
  %5 = load ptr, ptr %argv8, align 8
  %6 = load ptr, ptr %5, align 8
  br label %cond.end

cond.end:                                         ; preds = %cond.false, %cond.true
  %cond = phi ptr [ %add.ptr, %cond.true ], [ %6, %cond.false ]
  tail call void (ptr, ptr, ...) @g_string_printf(ptr noundef %call1, ptr noundef nonnull @.str.616, ptr noundef %cond) #27
  br label %if.end31

if.then12:                                        ; preds = %for.body
  %call13 = tail call ptr @g_string_assign(ptr noundef %call1, ptr noundef nonnull @.str.617) #27
  br label %if.end31

if.then16:                                        ; preds = %for.body
  %call17 = tail call i32 @getppid() #27
  tail call void (ptr, ptr, ...) @g_string_printf(ptr noundef %call1, ptr noundef nonnull @.str.614, i32 noundef %call17) #27
  br label %if.end31

if.then20:                                        ; preds = %for.body
  %7 = load i64, ptr %start_boottime, align 8
  tail call void (ptr, ptr, ...) @g_string_printf(ptr noundef %call1, ptr noundef nonnull @.str.618, i64 noundef %7) #27
  br label %if.end31

if.then23:                                        ; preds = %for.body
  %8 = load ptr, ptr %info, align 8
  %start_stack = getelementptr inbounds nuw i8, ptr %8, i64 56
  %9 = load i64, ptr %start_stack, align 8
  tail call void (ptr, ptr, ...) @g_string_printf(ptr noundef %call1, ptr noundef nonnull @.str.619, i64 noundef %9) #27
  br label %if.end31

if.else24:                                        ; preds = %for.body
  %cmp25 = icmp eq i32 %i.026, 43
  %cond26 = select i1 %cmp25, i32 10, i32 32
  tail call void (ptr, ptr, ...) @g_string_printf(ptr noundef %call1, ptr noundef nonnull @.str.620, i32 noundef %cond26) #27
  br label %if.end31

if.end31:                                         ; preds = %cond.end, %if.then16, %if.then23, %if.else24, %if.then20, %if.then12, %if.then
  %10 = load ptr, ptr %call1, align 8
  %11 = load i64, ptr %len, align 8
  %call32 = tail call i64 @write(i32 noundef %fd, ptr noundef %10, i64 noundef %11) #27
  %12 = load i64, ptr %len, align 8
  %cmp34.not = icmp eq i64 %call32, %12
  br i1 %cmp34.not, label %for.cond, label %glib_autoptr_cleanup_GString.exit

glib_autoptr_cleanup_GString.exit:                ; preds = %for.cond, %if.end31
  %retval.024 = phi i32 [ 0, %for.cond ], [ -1, %if.end31 ]
  %call.i.i.i = tail call ptr @g_string_free(ptr noundef nonnull %call1, i32 noundef 1) #27
  ret i32 %retval.024
}